#include <math.h>
#include <stdio.h>
#include <stdlib.h>
#include <string.h>

main()
{int i,t,j,k;
static char x[100000];
scanf("%d",&t);
for(i=1;i<=t;i++)
 { scanf("%s",x);
   for(k=0;x[k]!='\0';k++)
      {for(j=0;x[j]!='\0';j++)
          if(x[k]==x[j]&&k!=j) 
             break;
       if(x[j]=='\0') 
         {printf("%c\n",x[k]);
          break;
         }
      }
    if(x[k]=='\0') printf("no\n");
    for(j=1;j<100000;j++)
        x[j]='\0';
 }
}